; Function Attrs: mustprogress uwtable
define internal void @"_ZNSt17_Function_handlerIFvRN19OpenColorIO_v2_5dev10OpRcPtrVecEEZNS0_4ACES11RegisterAllERNS0_28BuiltinTransformRegistryImplEE3$_6E9_M_invokeERKSt9_Any_dataS2_"(ptr nonnull readnone align 8 captures(none) %0, ptr noundef nonnull align 8 dereferenceable(144) %1) #3 align 2 personality ptr @__gxx_personality_v0 {
  %3 = alloca %"class.std::shared_ptr", align 8
  call void @llvm.lifetime.start.p0(i64 16, ptr nonnull %3) #23
  call void @_ZN19OpenColorIO_v2_5dev23build_conversion_matrixERKNS_9PrimariesES2_NS_16AdaptationMethodE(ptr dead_on_unwind nonnull writable sret(%"class.std::shared_ptr") align 8 %3, ptr noundef nonnull align 8 dereferenceable(64) @_ZN19OpenColorIO_v2_5dev8ACES_AP19primariesE, ptr noundef nonnull align 8 dereferenceable(64) @_ZN19OpenColorIO_v2_5dev8ACES_AP09primariesE, i32 noundef 0)
  invoke void @_ZN19OpenColorIO_v2_5dev14CreateMatrixOpERNS_10OpRcPtrVecERSt10shared_ptrINS_12MatrixOpData11MatrixArrayEENS_18TransformDirectionE(ptr noundef nonnull align 8 dereferenceable(144) %1, ptr noundef nonnull align 8 dereferenceable(16) %3, i32 noundef 0)
          to label %4 unwind label %28

4:                                                ; preds = %2
  %5 = getelementptr inbounds nuw i8, ptr %3, i64 8
  %6 = load ptr, ptr %5, align 8, !tbaa !3
  %.not.i.i.i.i.i = icmp eq ptr %6, null
  br i1 %.not.i.i.i.i.i, label %"_ZSt10__invoke_rIvRZN19OpenColorIO_v2_5dev4ACES11RegisterAllERNS0_28BuiltinTransformRegistryImplEE3$_6JRNS0_10OpRcPtrVecEEENSt9enable_ifIXsr6__and_ISt7is_voidIT_ESt14__is_invocableIT0_JDpT1_EEEE5valueESA_E4typeEOSD_DpOSE_.exit", label %7

7:                                                ; preds = %4
  %8 = getelementptr inbounds nuw i8, ptr %6, i64 8
  %9 = load atomic i64, ptr %8 acquire, align 8
  %10 = icmp eq i64 %9, 4294967297
  %11 = trunc i64 %9 to i32
  br i1 %10, label %12, label %20

12:                                               ; preds = %7
  store i32 0, ptr %8, align 8, !tbaa !9
  %13 = getelementptr inbounds nuw i8, ptr %6, i64 12
  store i32 0, ptr %13, align 4, !tbaa !12
  %14 = load ptr, ptr %6, align 8, !tbaa !13
  %15 = getelementptr inbounds nuw i8, ptr %14, i64 16
  %16 = load ptr, ptr %15, align 8
  call void %16(ptr noundef nonnull align 8 dereferenceable(16) %6) #23
  %17 = load ptr, ptr %6, align 8, !tbaa !13
  %18 = getelementptr inbounds nuw i8, ptr %17, i64 24
  %19 = load ptr, ptr %18, align 8
  call void %19(ptr noundef nonnull align 8 dereferenceable(16) %6) #23
  br label %"_ZSt10__invoke_rIvRZN19OpenColorIO_v2_5dev4ACES11RegisterAllERNS0_28BuiltinTransformRegistryImplEE3$_6JRNS0_10OpRcPtrVecEEENSt9enable_ifIXsr6__and_ISt7is_voidIT_ESt14__is_invocableIT0_JDpT1_EEEE5valueESA_E4typeEOSD_DpOSE_.exit"

20:                                               ; preds = %7
  %21 = load i8, ptr @__libc_single_threaded, align 1, !tbaa !15
  %.not.i.i.i.i.i.i = icmp eq i8 %21, 0
  br i1 %.not.i.i.i.i.i.i, label %24, label %22

22:                                               ; preds = %20
  %23 = add nsw i32 %11, -1
  store i32 %23, ptr %8, align 4, !tbaa !16
  br label %_ZN9__gnu_cxx27__exchange_and_add_dispatchEPii.exit.i.i.i.i.i.i

24:                                               ; preds = %20
  %25 = atomicrmw volatile add ptr %8, i32 -1 acq_rel, align 4
  br label %_ZN9__gnu_cxx27__exchange_and_add_dispatchEPii.exit.i.i.i.i.i.i

_ZN9__gnu_cxx27__exchange_and_add_dispatchEPii.exit.i.i.i.i.i.i: ; preds = %24, %22
  %.0.i.i.i.i.i.i.i = phi i32 [ %11, %22 ], [ %25, %24 ]
  %26 = icmp eq i32 %.0.i.i.i.i.i.i.i, 1
  br i1 %26, label %27, label %"_ZSt10__invoke_rIvRZN19OpenColorIO_v2_5dev4ACES11RegisterAllERNS0_28BuiltinTransformRegistryImplEE3$_6JRNS0_10OpRcPtrVecEEENSt9enable_ifIXsr6__and_ISt7is_voidIT_ESt14__is_invocableIT0_JDpT1_EEEE5valueESA_E4typeEOSD_DpOSE_.exit", !prof !17

27:                                               ; preds = %_ZN9__gnu_cxx27__exchange_and_add_dispatchEPii.exit.i.i.i.i.i.i
  call void @_ZNSt16_Sp_counted_baseILN9__gnu_cxx12_Lock_policyE2EE24_M_release_last_use_coldEv(ptr noundef nonnull align 8 dereferenceable(16) %6) #23
  br label %"_ZSt10__invoke_rIvRZN19OpenColorIO_v2_5dev4ACES11RegisterAllERNS0_28BuiltinTransformRegistryImplEE3$_6JRNS0_10OpRcPtrVecEEENSt9enable_ifIXsr6__and_ISt7is_voidIT_ESt14__is_invocableIT0_JDpT1_EEEE5valueESA_E4typeEOSD_DpOSE_.exit"

28:                                               ; preds = %2
  %29 = landingpad { ptr, i32 }
          cleanup
  call void @_ZNSt12__shared_ptrIN19OpenColorIO_v2_5dev12MatrixOpData11MatrixArrayELN9__gnu_cxx12_Lock_policyE2EED2Ev(ptr noundef nonnull align 8 dereferenceable(16) %3) #23
  call void @llvm.lifetime.end.p0(i64 16, ptr nonnull %3) #23
  resume { ptr, i32 } %29

"_ZSt10__invoke_rIvRZN19OpenColorIO_v2_5dev4ACES11RegisterAllERNS0_28BuiltinTransformRegistryImplEE3$_6JRNS0_10OpRcPtrVecEEENSt9enable_ifIXsr6__and_ISt7is_voidIT_ESt14__is_invocableIT0_JDpT1_EEEE5valueESA_E4typeEOSD_DpOSE_.exit": ; preds = %4, %12, %_ZN9__gnu_cxx27__exchange_and_add_dispatchEPii.exit.i.i.i.i.i.i, %27
  call void @llvm.lifetime.end.p0(i64 16, ptr nonnull %3) #23
  ret void
}